target datalayout = "e-m:e-p270:32:32-p271:32:32-p272:64:64-i64:64-i128:128-f80:128-n8:16:32:64-S128"
target triple = "x86_64-pc-linux-gnu"

%"struct.ncnn::layer_registry_entry" = type { ptr, ptr }

; Function Attrs: mustprogress nounwind uwtable
define hidden noundef i32 @_ZN4ncnn14layer_to_indexEPKc(ptr noundef %0) #0 {
  %2 = alloca i32, align 4
  %3 = alloca ptr, align 8
  %4 = alloca i32, align 4
  %5 = alloca i32, align 4
  store ptr %0, ptr %3, align 8, !tbaa !82
  call void @llvm.lifetime.start.p0(i64 4, ptr %4) #16
  store i32 0, ptr %4, align 4, !tbaa !37
  br label %6

6:                                                ; preds = %22, %1
  %7 = load i32, ptr %4, align 4, !tbaa !37
  %8 = icmp slt i32 %7, 107
  br i1 %8, label %10, label %9

9:                                                ; preds = %6
  store i32 2, ptr %5, align 4
  br label %25

10:                                               ; preds = %6
  %11 = load ptr, ptr %3, align 8, !tbaa !82
  %12 = load i32, ptr %4, align 4, !tbaa !37
  %13 = sext i32 %12 to i64
  %14 = getelementptr inbounds [107 x %"struct.ncnn::layer_registry_entry"], ptr @_ZN4ncnnL14layer_registryE, i64 0, i64 %13
  %15 = getelementptr inbounds nuw %"struct.ncnn::layer_registry_entry", ptr %14, i32 0, i32 0
  %16 = load ptr, ptr %15, align 16, !tbaa !148
  %17 = call i32 @strcmp(ptr noundef %11, ptr noundef %16) #21
  %18 = icmp eq i32 %17, 0
  br i1 %18, label %19, label %21

19:                                               ; preds = %10
  %20 = load i32, ptr %4, align 4, !tbaa !37
  store i32 %20, ptr %2, align 4
  store i32 1, ptr %5, align 4
  br label %25

21:                                               ; preds = %10
  br label %22

22:                                               ; preds = %21
  %23 = load i32, ptr %4, align 4, !tbaa !37
  %24 = add nsw i32 %23, 1
  store i32 %24, ptr %4, align 4, !tbaa !37
  br label %6, !llvm.loop !150

25:                                               ; preds = %19, %9
  call void @llvm.lifetime.end.p0(i64 4, ptr %4) #16
  %26 = load i32, ptr %5, align 4
  switch i32 %26, label %30 [
    i32 2, label %27
    i32 1, label %28
  ]

27:                                               ; preds = %25
  store i32 -1, ptr %2, align 4
  br label %28

28:                                               ; preds = %27, %25
  %29 = load i32, ptr %2, align 4
  ret i32 %29

30:                                               ; preds = %25
  unreachable
}

; Function Attrs: mustprogress uwtable
define hidden noundef ptr @_ZN4ncnn12create_layerEPKc(ptr noundef %0) #1 {
  %2 = alloca ptr, align 8
  %3 = alloca ptr, align 8
  %4 = alloca i32, align 4
  %5 = alloca i32, align 4
  store ptr %0, ptr %3, align 8, !tbaa !82
  call void @llvm.lifetime.start.p0(i64 4, ptr %4) #16
  %6 = load ptr, ptr %3, align 8, !tbaa !82
  %7 = call noundef i32 @_ZN4ncnn14layer_to_indexEPKc(ptr noundef %6)
  store i32 %7, ptr %4, align 4, !tbaa !37
  %8 = load i32, ptr %4, align 4, !tbaa !37
  %9 = icmp eq i32 %8, -1
  br i1 %9, label %10, label %11

10:                                               ; preds = %1
  store ptr null, ptr %2, align 8
  store i32 1, ptr %5, align 4
  br label %14

11:                                               ; preds = %1
  %12 = load i32, ptr %4, align 4, !tbaa !37
  %13 = call noundef ptr @_ZN4ncnn12create_layerEi(i32 noundef %12)
  store ptr %13, ptr %2, align 8
  store i32 1, ptr %5, align 4
  br label %14

14:                                               ; preds = %11, %10
  call void @llvm.lifetime.end.p0(i64 4, ptr %4) #16
  %15 = load ptr, ptr %2, align 8
  ret ptr %15
}