; Function Attrs: mustprogress uwtable
define hidden noundef ptr @_ZN4ncnn12create_layerEPKc(ptr noundef readonly captures(none) %0) local_unnamed_addr #2 {
  br label %2

2:                                                ; preds = %7, %1
  %indvars.iv.i = phi i64 [ 0, %1 ], [ %indvars.iv.next.i, %7 ]
  %3 = getelementptr inbounds nuw [107 x %"struct.ncnn::layer_registry_entry"], ptr @_ZN4ncnnL14layer_registryE, i64 0, i64 %indvars.iv.i
  %4 = load ptr, ptr %3, align 16, !tbaa !65
  %5 = tail call i32 @strcmp(ptr noundef nonnull readonly dereferenceable(1) %0, ptr noundef nonnull dereferenceable(1) %4) #23
  %6 = icmp eq i32 %5, 0
  br i1 %6, label %_ZN4ncnn14layer_to_indexEPKc.exit, label %7

7:                                                ; preds = %2
  %indvars.iv.next.i = add nuw nsw i64 %indvars.iv.i, 1
  %exitcond.i = icmp eq i64 %indvars.iv.next.i, 107
  br i1 %exitcond.i, label %_ZN4ncnn14layer_to_indexEPKc.exit.thread, label %2, !llvm.loop !67

_ZN4ncnn14layer_to_indexEPKc.exit:                ; preds = %2
  %8 = trunc nuw nsw i64 %indvars.iv.i to i32
  %9 = tail call noundef ptr @_ZN4ncnn12create_layerEi(i32 noundef %8)
  br label %_ZN4ncnn14layer_to_indexEPKc.exit.thread

_ZN4ncnn14layer_to_indexEPKc.exit.thread:         ; preds = %7, %_ZN4ncnn14layer_to_indexEPKc.exit
  %.0 = phi ptr [ %9, %_ZN4ncnn14layer_to_indexEPKc.exit ], [ null, %7 ]
  ret ptr %.0
}